     1 00000000                                 [FORMAT "WCOFF"]
     2 00000000                                 [INSTRSET "i486p"]
     3 00000000                                 [OPTIMIZE 1]
     4 00000000                                 [OPTION 1]
     5 00000000                                 [BITS 32]
     6 00000000                                 	EXTERN	_io_out8
     7 00000000                                 	EXTERN	_io_in8
     8 00000000                                 	EXTERN	_fifo32_put
     9 00000000                                 	EXTERN	_fifo32_status
    10 00000000                                 	EXTERN	_fifo32_get
    11 00000000                                 	EXTERN	_fifo32_init
    12 00000000                                 	EXTERN	_io_cli
    13 00000000                                 	EXTERN	_io_sti
    14 00000000                                 [FILE "serial.c"]
    15                                          [SECTION .text]
    16 00000000                                 	GLOBAL	_inthandler23
    17 00000000                                 _inthandler23:
    18 00000000 55                              	PUSH	EBP
    19 00000001 89 E5                           	MOV	EBP,ESP
    20 00000003 6A 63                           	PUSH	99
    21 00000005 6A 20                           	PUSH	32
    22 00000007 E8 [00000000]                   	CALL	_io_out8
    23 0000000C C9                              	LEAVE
    24 0000000D C3                              	RET
    25 0000000E                                 	GLOBAL	_inthandler24
    26 0000000E                                 _inthandler24:
    27 0000000E 55                              	PUSH	EBP
    28 0000000F 89 E5                           	MOV	EBP,ESP
    29 00000011 68 000003FA                     	PUSH	1018
    30 00000016 E8 [00000000]                   	CALL	_io_in8
    31 0000001B 59                              	POP	ECX
    32 0000001C 88 C2                           	MOV	DL,AL
    33 0000001E 83 E0 01                        	AND	EAX,1
    34 00000021 84 C0                           	TEST	AL,AL
    35 00000023 75 21                           	JNE	L14
    36 00000025 88 D0                           	MOV	AL,DL
    37 00000027 D0 F8                           	SAR	AL,1
    38 00000029 83 E0 07                        	AND	EAX,7
    39 0000002C 81 E2 000000C0                  	AND	EDX,192
    40 00000032 75 12                           	JNE	L14
    41 00000034 0F BE C0                        	MOVSX	EAX,AL
    42 00000037 83 F8 01                        	CMP	EAX,1
    43 0000003A 74 30                           	JE	L8
    44 0000003C 83 F8 01                        	CMP	EAX,1
    45 0000003F 7E 05                           	JLE	L14
    46 00000041 83 F8 02                        	CMP	EAX,2
    47 00000044 74 0B                           	JE	L25
    48 00000046                                 L14:
    49 00000046 6A 64                           	PUSH	100
    50 00000048 6A 20                           	PUSH	32
    51 0000004A E8 [00000000]                   	CALL	_io_out8
    52 0000004F C9                              	LEAVE
    53 00000050 C3                              	RET
    54 00000051                                 L25:
    55 00000051 68 000003F8                     	PUSH	1016
    56 00000056 E8 [00000000]                   	CALL	_io_in8
    57 0000005B 89 04 24                        	MOV	DWORD [ESP],EAX
    58 0000005E 68 [00000018]                   	PUSH	_COM1+8
    59 00000063 E8 [00000000]                   	CALL	_fifo32_put
    60 00000068                                 L24:
    61 00000068 58                              	POP	EAX
    62 00000069 5A                              	POP	EDX
    63 0000006A EB DA                           	JMP	L14
    64 0000006C                                 L8:
    65 0000006C 68 [00000234]                   	PUSH	_COM1+548
    66 00000071 E8 [00000000]                   	CALL	_fifo32_status
    67 00000076 59                              	POP	ECX
    68 00000077 85 C0                           	TEST	EAX,EAX
    69 00000079 7E CB                           	JLE	L14
    70 0000007B 68 [00000234]                   	PUSH	_COM1+548
    71 00000080 E8 [00000000]                   	CALL	_fifo32_get
    72 00000085 89 04 24                        	MOV	DWORD [ESP],EAX
    73 00000088 68 000003F8                     	PUSH	1016
    74 0000008D E8 [00000000]                   	CALL	_io_out8
    75 00000092 EB D4                           	JMP	L24
    76 00000094                                 	GLOBAL	_init_rs232
    77 00000094                                 _init_rs232:
    78 00000094 55                              	PUSH	EBP
    79 00000095 89 E5                           	MOV	EBP,ESP
    80 00000097 6A 00                           	PUSH	0
    81 00000099 68 [00000034]                   	PUSH	_COM1+36
    82 0000009E 68 00000080                     	PUSH	128
    83 000000A3 68 [00000018]                   	PUSH	_COM1+8
    84 000000A8 C7 05 [00000010] 314D4F43       	MOV	DWORD [_COM1],827150147
    85 000000B2 C6 05 [00000014] 00             	MOV	BYTE [_COM1+4],0
    86 000000B9 C7 05 [00000460] 324D4F43       	MOV	DWORD [_COM2],843927363
    87 000000C3 C6 05 [00000464] 00             	MOV	BYTE [_COM2+4],0
    88 000000CA E8 [00000000]                   	CALL	_fifo32_init
    89 000000CF 6A 00                           	PUSH	0
    90 000000D1 68 [00000250]                   	PUSH	_COM1+576
    91 000000D6 68 00000080                     	PUSH	128
    92 000000DB 68 [00000234]                   	PUSH	_COM1+548
    93 000000E0 E8 [00000000]                   	CALL	_fifo32_init
    94 000000E5 83 C4 20                        	ADD	ESP,32
    95 000000E8 6A 00                           	PUSH	0
    96 000000EA 68 [00000484]                   	PUSH	_COM2+36
    97 000000EF 68 00000080                     	PUSH	128
    98 000000F4 68 [00000468]                   	PUSH	_COM2+8
    99 000000F9 E8 [00000000]                   	CALL	_fifo32_init
   100 000000FE 6A 00                           	PUSH	0
   101 00000100 68 [000006A0]                   	PUSH	_COM2+576
   102 00000105 68 00000080                     	PUSH	128
   103 0000010A 68 [00000684]                   	PUSH	_COM2+548
   104 0000010F E8 [00000000]                   	CALL	_fifo32_init
   105 00000114 83 C4 20                        	ADD	ESP,32
   106 00000117 C7 05 [00000450] 00000000       	MOV	DWORD [_COM1+1088],0
   107 00000121 C6 05 [00000454] 03             	MOV	BYTE [_COM1+1092],3
   108 00000128 C6 05 [00000455] 03             	MOV	BYTE [_COM1+1093],3
   109 0000012F C6 05 [00000456] 08             	MOV	BYTE [_COM1+1094],8
   110 00000136 C7 05 [00000458] 00000000       	MOV	DWORD [_COM1+1096],0
   111 00000140 C7 05 [000008A0] 00000000       	MOV	DWORD [_COM2+1088],0
   112 0000014A C6 05 [000008A4] 03             	MOV	BYTE [_COM2+1092],3
   113 00000151 C6 05 [000008A5] 03             	MOV	BYTE [_COM2+1093],3
   114 00000158 C6 05 [000008A6] 00             	MOV	BYTE [_COM2+1094],0
   115 0000015F C7 05 [000008A8] 00000000       	MOV	DWORD [_COM2+1096],0
   116 00000169 E8 00000111                     	CALL	_rs232_cli
   117 0000016E 0F BE 05 [00000455]             	MOVSX	EAX,BYTE [_COM1+1093]
   118 00000175 50                              	PUSH	EAX
   119 00000176 68 000003FB                     	PUSH	1019
   120 0000017B E8 [00000000]                   	CALL	_io_out8
   121 00000180 0F BE 05 [00000456]             	MOVSX	EAX,BYTE [_COM1+1094]
   122 00000187 50                              	PUSH	EAX
   123 00000188 68 000003FC                     	PUSH	1020
   124 0000018D E8 [00000000]                   	CALL	_io_out8
   125 00000192 0F BE 05 [00000454]             	MOVSX	EAX,BYTE [_COM1+1092]
   126 00000199 50                              	PUSH	EAX
   127 0000019A 68 000003F9                     	PUSH	1017
   128 0000019F E8 [00000000]                   	CALL	_io_out8
   129 000001A4 68 00002580                     	PUSH	9600
   130 000001A9 68 [00000010]                   	PUSH	_COM1
   131 000001AE E8 00000100                     	CALL	_rs232_baudrate
   132 000001B3 83 C4 20                        	ADD	ESP,32
   133 000001B6 0F BE 05 [000008A5]             	MOVSX	EAX,BYTE [_COM2+1093]
   134 000001BD 50                              	PUSH	EAX
   135 000001BE 68 000002FB                     	PUSH	763
   136 000001C3 E8 [00000000]                   	CALL	_io_out8
   137 000001C8 0F BE 05 [000008A6]             	MOVSX	EAX,BYTE [_COM2+1094]
   138 000001CF 50                              	PUSH	EAX
   139 000001D0 68 000002FC                     	PUSH	764
   140 000001D5 E8 [00000000]                   	CALL	_io_out8
   141 000001DA 0F BE 05 [000008A4]             	MOVSX	EAX,BYTE [_COM2+1092]
   142 000001E1 50                              	PUSH	EAX
   143 000001E2 68 000002F9                     	PUSH	761
   144 000001E7 E8 [00000000]                   	CALL	_io_out8
   145 000001EC 68 00002580                     	PUSH	9600
   146 000001F1 68 [00000460]                   	PUSH	_COM2
   147 000001F6 E8 000000B8                     	CALL	_rs232_baudrate
   148 000001FB 83 C4 20                        	ADD	ESP,32
   149 000001FE 68 000003F8                     	PUSH	1016
   150 00000203 E8 [00000000]                   	CALL	_io_in8
   151 00000208 68 000002F8                     	PUSH	760
   152 0000020D E8 [00000000]                   	CALL	_io_in8
   153 00000212 E8 00000082                     	CALL	_rs232_sti
   154 00000217 6A 63                           	PUSH	99
   155 00000219 68 000003F8                     	PUSH	1016
   156 0000021E E8 [00000000]                   	CALL	_io_out8
   157 00000223 6A 6F                           	PUSH	111
   158 00000225 68 000003F8                     	PUSH	1016
   159 0000022A E8 [00000000]                   	CALL	_io_out8
   160 0000022F 6A 6E                           	PUSH	110
   161 00000231 68 000003F8                     	PUSH	1016
   162 00000236 E8 [00000000]                   	CALL	_io_out8
   163 0000023B 83 C4 20                        	ADD	ESP,32
   164 0000023E 6A 65                           	PUSH	101
   165 00000240 68 000003F8                     	PUSH	1016
   166 00000245 E8 [00000000]                   	CALL	_io_out8
   167 0000024A 6A 63                           	PUSH	99
   168 0000024C 68 000003F8                     	PUSH	1016
   169 00000251 E8 [00000000]                   	CALL	_io_out8
   170 00000256 6A 74                           	PUSH	116
   171 00000258 68 000003F8                     	PUSH	1016
   172 0000025D E8 [00000000]                   	CALL	_io_out8
   173 00000262 6A 65                           	PUSH	101
   174 00000264 68 000003F8                     	PUSH	1016
   175 00000269 E8 [00000000]                   	CALL	_io_out8
   176 0000026E 83 C4 20                        	ADD	ESP,32
   177 00000271 6A 64                           	PUSH	100
   178 00000273 68 000003F8                     	PUSH	1016
   179 00000278 E8 [00000000]                   	CALL	_io_out8
   180 0000027D C9                              	LEAVE
   181 0000027E C3                              	RET
   182 0000027F                                 	GLOBAL	_rs232_cli
   183 0000027F                                 _rs232_cli:
   184 0000027F 55                              	PUSH	EBP
   185 00000280 89 E5                           	MOV	EBP,ESP
   186 00000282 6A 21                           	PUSH	33
   187 00000284 E8 [00000000]                   	CALL	_io_in8
   188 00000289 83 C8 18                        	OR	EAX,24
   189 0000028C 0F BE C0                        	MOVSX	EAX,AL
   190 0000028F 50                              	PUSH	EAX
   191 00000290 6A 21                           	PUSH	33
   192 00000292 E8 [00000000]                   	CALL	_io_out8
   193 00000297 C9                              	LEAVE
   194 00000298 C3                              	RET
   195 00000299                                 	GLOBAL	_rs232_sti
   196 00000299                                 _rs232_sti:
   197 00000299 55                              	PUSH	EBP
   198 0000029A 89 E5                           	MOV	EBP,ESP
   199 0000029C 6A 21                           	PUSH	33
   200 0000029E E8 [00000000]                   	CALL	_io_in8
   201 000002A3 83 E0 E7                        	AND	EAX,-25
   202 000002A6 0F BE C0                        	MOVSX	EAX,AL
   203 000002A9 50                              	PUSH	EAX
   204 000002AA 6A 21                           	PUSH	33
   205 000002AC E8 [00000000]                   	CALL	_io_out8
   206 000002B1 C9                              	LEAVE
   207 000002B2 C3                              	RET
   208                                          [SECTION .data]
   209 00000000                                 LC0:
   210 00000000 43 4F 4D 31 00                  	DB	"COM1",0x00
   211 00000005                                 LC1:
   212 00000005 43 4F 4D 32 00                  	DB	"COM2",0x00
   213                                          [SECTION .text]
   214 000002B3                                 	GLOBAL	_rs232_baudrate
   215 000002B3                                 _rs232_baudrate:
   216 000002B3 55                              	PUSH	EBP
   217 000002B4 89 E5                           	MOV	EBP,ESP
   218 000002B6 57                              	PUSH	EDI
   219 000002B7 56                              	PUSH	ESI
   220 000002B8 53                              	PUSH	EBX
   221 000002B9 53                              	PUSH	EBX
   222 000002BA 8B 5D 0C                        	MOV	EBX,DWORD [12+EBP]
   223 000002BD C6 45 F2 00                     	MOV	BYTE [-14+EBP],0
   224 000002C1 C6 45 F3 18                     	MOV	BYTE [-13+EBP],24
   225 000002C5 81 FB 000012C0                  	CMP	EBX,4800
   226 000002CB 74 3C                           	JE	L30
   227 000002CD 81 FB 000012C0                  	CMP	EBX,4800
   228 000002D3 0F 8F 00000116                  	JG	L43
   229 000002D9 C6 45 F3 C0                     	MOV	BYTE [-13+EBP],-64
   230 000002DD 81 FB 00000258                  	CMP	EBX,600
   231 000002E3 74 24                           	JE	L30
   232 000002E5 81 FB 00000258                  	CMP	EBX,600
   233 000002EB 0F 8F 000000DF                  	JG	L44
   234 000002F1 81 FB 0000012C                  	CMP	EBX,300
   235 000002F7 C6 45 F2 01                     	MOV	BYTE [-14+EBP],1
   236 000002FB C6 45 F3 80                     	MOV	BYTE [-13+EBP],-128
   237 000002FF                                 L49:
   238 000002FF 74 08                           	JE	L30
   239 00000301 C6 45 F2 00                     	MOV	BYTE [-14+EBP],0
   240 00000305 C6 45 F3 0C                     	MOV	BYTE [-13+EBP],12
   241 00000309                                 L30:
   242 00000309 FC                              	CLD
   243 0000030A 8B 75 08                        	MOV	ESI,DWORD [8+EBP]
   244 0000030D BF [00000000]                   	MOV	EDI,LC0
   245 00000312 B9 00000005                     	MOV	ECX,5
   246 00000317 F3                              	REPE
   247 00000318 A6                              	CMPSB
   248 00000319 74 70                           	JE	L51
   249 0000031B FC                              	CLD
   250 0000031C 8B 75 08                        	MOV	ESI,DWORD [8+EBP]
   251 0000031F BF [00000005]                   	MOV	EDI,LC1
   252 00000324 B9 00000005                     	MOV	ECX,5
   253 00000329 F3                              	REPE
   254 0000032A A6                              	CMPSB
   255 0000032B 74 08                           	JE	L52
   256 0000032D                                 L29:
   257 0000032D 8D 65 F4                        	LEA	ESP,DWORD [-12+EBP]
   258 00000330 5B                              	POP	EBX
   259 00000331 5E                              	POP	ESI
   260 00000332 5F                              	POP	EDI
   261 00000333 5D                              	POP	EBP
   262 00000334 C3                              	RET
   263 00000335                                 L52:
   264 00000335 68 000002FB                     	PUSH	763
   265 0000033A E8 [00000000]                   	CALL	_io_in8
   266 0000033F 0F BE F0                        	MOVSX	ESI,AL
   267 00000342 89 F0                           	MOV	EAX,ESI
   268 00000344 0D 00000080                     	OR	EAX,128
   269 00000349 50                              	PUSH	EAX
   270 0000034A 68 000002FB                     	PUSH	763
   271 0000034F E8 [00000000]                   	CALL	_io_out8
   272 00000354 0F BE 45 F3                     	MOVSX	EAX,BYTE [-13+EBP]
   273 00000358 50                              	PUSH	EAX
   274 00000359 68 000002F8                     	PUSH	760
   275 0000035E E8 [00000000]                   	CALL	_io_out8
   276 00000363 0F BE 45 F2                     	MOVSX	EAX,BYTE [-14+EBP]
   277 00000367 50                              	PUSH	EAX
   278 00000368 68 000002F9                     	PUSH	761
   279 0000036D E8 [00000000]                   	CALL	_io_out8
   280 00000372 56                              	PUSH	ESI
   281 00000373 68 000002FB                     	PUSH	763
   282 00000378                                 L50:
   283 00000378 E8 [00000000]                   	CALL	_io_out8
   284 0000037D 83 C4 24                        	ADD	ESP,36
   285 00000380 8B 45 08                        	MOV	EAX,DWORD [8+EBP]
   286 00000383 89 98 00000440                  	MOV	DWORD [1088+EAX],EBX
   287 00000389 EB A2                           	JMP	L29
   288 0000038B                                 L51:
   289 0000038B 68 000003FB                     	PUSH	1019
   290 00000390 E8 [00000000]                   	CALL	_io_in8
   291 00000395 0F BE F0                        	MOVSX	ESI,AL
   292 00000398 89 F0                           	MOV	EAX,ESI
   293 0000039A 0D 00000080                     	OR	EAX,128
   294 0000039F 50                              	PUSH	EAX
   295 000003A0 68 000003FB                     	PUSH	1019
   296 000003A5 E8 [00000000]                   	CALL	_io_out8
   297 000003AA 0F BE 45 F3                     	MOVSX	EAX,BYTE [-13+EBP]
   298 000003AE 50                              	PUSH	EAX
   299 000003AF 68 000003F8                     	PUSH	1016
   300 000003B4 E8 [00000000]                   	CALL	_io_out8
   301 000003B9 0F BE 45 F2                     	MOVSX	EAX,BYTE [-14+EBP]
   302 000003BD 50                              	PUSH	EAX
   303 000003BE 68 000003F9                     	PUSH	1017
   304 000003C3 E8 [00000000]                   	CALL	_io_out8
   305 000003C8 56                              	PUSH	ESI
   306 000003C9 68 000003FB                     	PUSH	1019
   307 000003CE EB A8                           	JMP	L50
   308 000003D0                                 L44:
   309 000003D0 C6 45 F3 60                     	MOV	BYTE [-13+EBP],96
   310 000003D4 81 FB 000004B0                  	CMP	EBX,1200
   311 000003DA 0F 84 FFFFFF29                  	JE	L30
   312 000003E0 81 FB 00000960                  	CMP	EBX,2400
   313 000003E6 C6 45 F3 30                     	MOV	BYTE [-13+EBP],48
   314 000003EA E9 FFFFFF10                     	JMP	L49
   315 000003EF                                 L43:
   316 000003EF C6 45 F3 03                     	MOV	BYTE [-13+EBP],3
   317 000003F3 81 FB 00009600                  	CMP	EBX,38400
   318 000003F9 0F 84 FFFFFF0A                  	JE	L30
   319 000003FF 81 FB 00009600                  	CMP	EBX,38400
   320 00000405 7F 1F                           	JG	L45
   321 00000407 C6 45 F3 0C                     	MOV	BYTE [-13+EBP],12
   322 0000040B 81 FB 00002580                  	CMP	EBX,9600
   323 00000411 0F 84 FFFFFEF2                  	JE	L30
   324 00000417 81 FB 00004B00                  	CMP	EBX,19200
   325 0000041D C6 45 F3 06                     	MOV	BYTE [-13+EBP],6
   326 00000421 E9 FFFFFED9                     	JMP	L49
   327 00000426                                 L45:
   328 00000426 C6 45 F3 02                     	MOV	BYTE [-13+EBP],2
   329 0000042A 81 FB 0000E100                  	CMP	EBX,57600
   330 00000430 0F 84 FFFFFED3                  	JE	L30
   331 00000436 C6 45 F3 01                     	MOV	BYTE [-13+EBP],1
   332 0000043A 81 FB 0001C200                  	CMP	EBX,115200
   333 00000440 E9 FFFFFEBA                     	JMP	L49
   334                                          [SECTION .data]
   335 0000000A 00 00                           	ALIGNB	4
   336 0000000C                                 _first.0:
   337 0000000C 00000001                        	DD	1
   338                                          [SECTION .text]
   339 00000445                                 	GLOBAL	_rs232_put
   340 00000445                                 _rs232_put:
   341 00000445 55                              	PUSH	EBP
   342 00000446 89 E5                           	MOV	EBP,ESP
   343 00000448 57                              	PUSH	EDI
   344 00000449 56                              	PUSH	ESI
   345 0000044A 53                              	PUSH	EBX
   346 0000044B 57                              	PUSH	EDI
   347 0000044C 8B 5D 08                        	MOV	EBX,DWORD [8+EBP]
   348 0000044F 8A 45 0C                        	MOV	AL,BYTE [12+EBP]
   349 00000452 88 45 F3                        	MOV	BYTE [-13+EBP],AL
   350 00000455 8B 83 00000448                  	MOV	EAX,DWORD [1096+EBX]
   351 0000045B 3B 45 10                        	CMP	EAX,DWORD [16+EBP]
   352 0000045E 74 0D                           	JE	L54
   353 00000460 B8 FFFFFFFD                     	MOV	EAX,-3
   354 00000465                                 L53:
   355 00000465 8D 65 F4                        	LEA	ESP,DWORD [-12+EBP]
   356 00000468 5B                              	POP	EBX
   357 00000469 5E                              	POP	ESI
   358 0000046A 5F                              	POP	EDI
   359 0000046B 5D                              	POP	EBP
   360 0000046C C3                              	RET
   361 0000046D                                 L54:
   362 0000046D 83 3D [0000000C] 01             	CMP	DWORD [_first.0],1
   363 00000474 0F 84 0000009E                  	JE	L69
   364 0000047A E8 [00000000]                   	CALL	_io_cli
   365 0000047F 68 000003FD                     	PUSH	1021
   366 00000484 E8 [00000000]                   	CALL	_io_in8
   367 00000489 59                              	POP	ECX
   368 0000048A 83 E0 40                        	AND	EAX,64
   369 0000048D 75 09                           	JNE	L59
   370 0000048F 83 3D [0000000C] 00             	CMP	DWORD [_first.0],0
   371 00000496 74 68                           	JE	L70
   372 00000498                                 L59:
   373 00000498 68 000003FD                     	PUSH	1021
   374 0000049D E8 [00000000]                   	CALL	_io_in8
   375 000004A2 5A                              	POP	EDX
   376 000004A3 83 E0 40                        	AND	EAX,64
   377 000004A6 74 09                           	JE	L60
   378 000004A8 83 3D [0000000C] 00             	CMP	DWORD [_first.0],0
   379 000004AF 74 09                           	JE	L71
   380 000004B1                                 L60:
   381 000004B1 E8 [00000000]                   	CALL	_io_sti
   382 000004B6                                 L68:
   383 000004B6 31 C0                           	XOR	EAX,EAX
   384 000004B8 EB AB                           	JMP	L53
   385 000004BA                                 L71:
   386 000004BA 89 DE                           	MOV	ESI,EBX
   387 000004BC E8 [00000000]                   	CALL	_io_sti
   388 000004C1 FC                              	CLD
   389 000004C2 BF [00000000]                   	MOV	EDI,LC0
   390 000004C7 B9 00000005                     	MOV	ECX,5
   391 000004CC F3                              	REPE
   392 000004CD A6                              	CMPSB
   393 000004CE 74 24                           	JE	L72
   394 000004D0 FC                              	CLD
   395 000004D1 89 DE                           	MOV	ESI,EBX
   396 000004D3 BF [00000005]                   	MOV	EDI,LC1
   397 000004D8 B9 00000005                     	MOV	ECX,5
   398 000004DD F3                              	REPE
   399 000004DE A6                              	CMPSB
   400 000004DF 75 D0                           	JNE	L60
   401 000004E1 0F BE 45 F3                     	MOVSX	EAX,BYTE [-13+EBP]
   402 000004E5 50                              	PUSH	EAX
   403 000004E6 68 000002F8                     	PUSH	760
   404 000004EB                                 L66:
   405 000004EB E8 [00000000]                   	CALL	_io_out8
   406 000004F0                                 L67:
   407 000004F0 5E                              	POP	ESI
   408 000004F1 5F                              	POP	EDI
   409 000004F2 EB BD                           	JMP	L60
   410 000004F4                                 L72:
   411 000004F4 0F BE 45 F3                     	MOVSX	EAX,BYTE [-13+EBP]
   412 000004F8 50                              	PUSH	EAX
   413 000004F9 68 000003F8                     	PUSH	1016
   414 000004FE EB EB                           	JMP	L66
   415 00000500                                 L70:
   416 00000500 0F BE 45 F3                     	MOVSX	EAX,BYTE [-13+EBP]
   417 00000504 50                              	PUSH	EAX
   418 00000505 8D 83 00000224                  	LEA	EAX,DWORD [548+EBX]
   419 0000050B 50                              	PUSH	EAX
   420 0000050C E8 [00000000]                   	CALL	_fifo32_put
   421 00000511 E8 [00000000]                   	CALL	_io_sti
   422 00000516 EB D8                           	JMP	L67
   423 00000518                                 L69:
   424 00000518 FC                              	CLD
   425 00000519 C7 05 [0000000C] 00000000       	MOV	DWORD [_first.0],0
   426 00000523 89 DE                           	MOV	ESI,EBX
   427 00000525 BF [00000000]                   	MOV	EDI,LC0
   428 0000052A B9 00000005                     	MOV	ECX,5
   429 0000052F F3                              	REPE
   430 00000530 A6                              	CMPSB
   431 00000531 74 2B                           	JE	L73
   432 00000533 FC                              	CLD
   433 00000534 89 DE                           	MOV	ESI,EBX
   434 00000536 BF [00000005]                   	MOV	EDI,LC1
   435 0000053B B9 00000005                     	MOV	ECX,5
   436 00000540 F3                              	REPE
   437 00000541 A6                              	CMPSB
   438 00000542 0F 85 FFFFFF6E                  	JNE	L68
   439 00000548 0F BE 45 F3                     	MOVSX	EAX,BYTE [-13+EBP]
   440 0000054C 50                              	PUSH	EAX
   441 0000054D 68 000002F8                     	PUSH	760
   442 00000552                                 L65:
   443 00000552 E8 [00000000]                   	CALL	_io_out8
   444 00000557 5B                              	POP	EBX
   445 00000558 5E                              	POP	ESI
   446 00000559 E9 FFFFFF58                     	JMP	L68
   447 0000055E                                 L73:
   448 0000055E 0F BE 45 F3                     	MOVSX	EAX,BYTE [-13+EBP]
   449 00000562 50                              	PUSH	EAX
   450 00000563 68 000003F8                     	PUSH	1016
   451 00000568 EB E8                           	JMP	L65
   452 0000056A                                 	GLOBAL	_rs232_get
   453 0000056A                                 _rs232_get:
   454 0000056A 55                              	PUSH	EBP
   455 0000056B 89 E5                           	MOV	EBP,ESP
   456 0000056D 8B 55 08                        	MOV	EDX,DWORD [8+EBP]
   457 00000570 8B 82 00000448                  	MOV	EAX,DWORD [1096+EDX]
   458 00000576 3B 45 0C                        	CMP	EAX,DWORD [12+EBP]
   459 00000579 74 07                           	JE	L77
   460 0000057B B8 FFFFFFFD                     	MOV	EAX,-3
   461 00000580 5D                              	POP	EBP
   462 00000581 C3                              	RET
   463 00000582                                 L77:
   464 00000582 8D 42 08                        	LEA	EAX,DWORD [8+EDX]
   465 00000585 89 45 08                        	MOV	DWORD [8+EBP],EAX
   466 00000588 5D                              	POP	EBP
   467 00000589 E9 [00000000]                   	JMP	_fifo32_get
   468 0000058E                                 	GLOBAL	_open_rs232
   469 0000058E                                 _open_rs232:
   470 0000058E 55                              	PUSH	EBP
   471 0000058F 89 E5                           	MOV	EBP,ESP
   472 00000591 8B 55 08                        	MOV	EDX,DWORD [8+EBP]
   473 00000594 83 BA 00000448 00               	CMP	DWORD [1096+EDX],0
   474 0000059B 75 0D                           	JNE	L79
   475 0000059D 8B 45 0C                        	MOV	EAX,DWORD [12+EBP]
   476 000005A0 89 82 00000448                  	MOV	DWORD [1096+EDX],EAX
   477 000005A6 31 C0                           	XOR	EAX,EAX
   478 000005A8                                 L78:
   479 000005A8 5D                              	POP	EBP
   480 000005A9 C3                              	RET
   481 000005AA                                 L79:
   482 000005AA 83 C8 FF                        	OR	EAX,-1
   483 000005AD EB F9                           	JMP	L78
   484 000005AF                                 	GLOBAL	_close_rs232
   485 000005AF                                 _close_rs232:
   486 000005AF 55                              	PUSH	EBP
   487 000005B0 89 E5                           	MOV	EBP,ESP
   488 000005B2 8B 55 08                        	MOV	EDX,DWORD [8+EBP]
   489 000005B5 8B 82 00000448                  	MOV	EAX,DWORD [1096+EDX]
   490 000005BB 3B 45 0C                        	CMP	EAX,DWORD [12+EBP]
   491 000005BE 74 05                           	JE	L84
   492 000005C0 83 C8 FF                        	OR	EAX,-1
   493 000005C3                                 L81:
   494 000005C3 5D                              	POP	EBP
   495 000005C4 C3                              	RET
   496 000005C5                                 L84:
   497 000005C5 31 C0                           	XOR	EAX,EAX
   498 000005C7 C7 82 00000448 00000000         	MOV	DWORD [1096+EDX],0
   499 000005D1 EB F0                           	JMP	L81
   500 000005D3                                 	GLOBAL	_COM1
   501                                          [SECTION .data]
   502 00000010                                 	ALIGNB	16
   503 00000010                                 _COM1:
   504 00000010 00 00 00 00 00 00 00 00 00 00   	RESB	1100
       0000001A 00 00 00 00 00 00 00 00 00 00 
       00000024 00 00 00 00 00 00 00 00 00 00 
       0000002E 00 00 00 00 00 00 00 00 00 00 
       00000038 00 00 00 00 00 00 00 00 00 00 
       00000042 00 00 00 00 00 00 00 00 00 00 
       0000004C 00 00 00 00 00 00 00 00 00 00 
       00000056 00 00 00 00 00 00 00 00 00 00 
       00000060 00 00 00 00 00 00 00 00 00 00 
       0000006A 00 00 00 00 00 00 00 00 00 00 
       00000074 00 00 00 00 00 00 00 00 00 00 
       0000007E 00 00 00 00 00 00 00 00 00 00 
       00000088 00 00 00 00 00 00 00 00 00 00 
       00000092 00 00 00 00 00 00 00 00 00 00 
       0000009C 00 00 00 00 00 00 00 00 00 00 
       000000A6 00 00 00 00 00 00 00 00 00 00 
       000000B0 00 00 00 00 00 00 00 00 00 00 
       000000BA 00 00 00 00 00 00 00 00 00 00 
       000000C4 00 00 00 00 00 00 00 00 00 00 
       000000CE 00 00 00 00 00 00 00 00 00 00 
       000000D8 00 00 00 00 00 00 00 00 00 00 
       000000E2 00 00 00 00 00 00 00 00 00 00 
       000000EC 00 00 00 00 00 00 00 00 00 00 
       000000F6 00 00 00 00 00 00 00 00 00 00 
       00000100 00 00 00 00 00 00 00 00 00 00 
       0000010A 00 00 00 00 00 00 00 00 00 00 
       00000114 00 00 00 00 00 00 00 00 00 00 
       0000011E 00 00 00 00 00 00 00 00 00 00 
       00000128 00 00 00 00 00 00 00 00 00 00 
       00000132 00 00 00 00 00 00 00 00 00 00 
       0000013C 00 00 00 00 00 00 00 00 00 00 
       00000146 00 00 00 00 00 00 00 00 00 00 
       00000150 00 00 00 00 00 00 00 00 00 00 
       0000015A 00 00 00 00 00 00 00 00 00 00 
       00000164 00 00 00 00 00 00 00 00 00 00 
       0000016E 00 00 00 00 00 00 00 00 00 00 
       00000178 00 00 00 00 00 00 00 00 00 00 
       00000182 00 00 00 00 00 00 00 00 00 00 
       0000018C 00 00 00 00 00 00 00 00 00 00 
       00000196 00 00 00 00 00 00 00 00 00 00 
       000001A0 00 00 00 00 00 00 00 00 00 00 
       000001AA 00 00 00 00 00 00 00 00 00 00 
       000001B4 00 00 00 00 00 00 00 00 00 00 
       000001BE 00 00 00 00 00 00 00 00 00 00 
       000001C8 00 00 00 00 00 00 00 00 00 00 
       000001D2 00 00 00 00 00 00 00 00 00 00 
       000001DC 00 00 00 00 00 00 00 00 00 00 
       000001E6 00 00 00 00 00 00 00 00 00 00 
       000001F0 00 00 00 00 00 00 00 00 00 00 
       000001FA 00 00 00 00 00 00 00 00 00 00 
       00000204 00 00 00 00 00 00 00 00 00 00 
       0000020E 00 00 00 00 00 00 00 00 00 00 
       00000218 00 00 00 00 00 00 00 00 00 00 
       00000222 00 00 00 00 00 00 00 00 00 00 
       0000022C 00 00 00 00 00 00 00 00 00 00 
       00000236 00 00 00 00 00 00 00 00 00 00 
       00000240 00 00 00 00 00 00 00 00 00 00 
       0000024A 00 00 00 00 00 00 00 00 00 00 
       00000254 00 00 00 00 00 00 00 00 00 00 
       0000025E 00 00 00 00 00 00 00 00 00 00 
       00000268 00 00 00 00 00 00 00 00 00 00 
       00000272 00 00 00 00 00 00 00 00 00 00 
       0000027C 00 00 00 00 00 00 00 00 00 00 
       00000286 00 00 00 00 00 00 00 00 00 00 
       00000290 00 00 00 00 00 00 00 00 00 00 
       0000029A 00 00 00 00 00 00 00 00 00 00 
       000002A4 00 00 00 00 00 00 00 00 00 00 
       000002AE 00 00 00 00 00 00 00 00 00 00 
       000002B8 00 00 00 00 00 00 00 00 00 00 
       000002C2 00 00 00 00 00 00 00 00 00 00 
       000002CC 00 00 00 00 00 00 00 00 00 00 
       000002D6 00 00 00 00 00 00 00 00 00 00 
       000002E0 00 00 00 00 00 00 00 00 00 00 
       000002EA 00 00 00 00 00 00 00 00 00 00 
       000002F4 00 00 00 00 00 00 00 00 00 00 
       000002FE 00 00 00 00 00 00 00 00 00 00 
       00000308 00 00 00 00 00 00 00 00 00 00 
       00000312 00 00 00 00 00 00 00 00 00 00 
       0000031C 00 00 00 00 00 00 00 00 00 00 
       00000326 00 00 00 00 00 00 00 00 00 00 
       00000330 00 00 00 00 00 00 00 00 00 00 
       0000033A 00 00 00 00 00 00 00 00 00 00 
       00000344 00 00 00 00 00 00 00 00 00 00 
       0000034E 00 00 00 00 00 00 00 00 00 00 
       00000358 00 00 00 00 00 00 00 00 00 00 
       00000362 00 00 00 00 00 00 00 00 00 00 
       0000036C 00 00 00 00 00 00 00 00 00 00 
       00000376 00 00 00 00 00 00 00 00 00 00 
       00000380 00 00 00 00 00 00 00 00 00 00 
       0000038A 00 00 00 00 00 00 00 00 00 00 
       00000394 00 00 00 00 00 00 00 00 00 00 
       0000039E 00 00 00 00 00 00 00 00 00 00 
       000003A8 00 00 00 00 00 00 00 00 00 00 
       000003B2 00 00 00 00 00 00 00 00 00 00 
       000003BC 00 00 00 00 00 00 00 00 00 00 
       000003C6 00 00 00 00 00 00 00 00 00 00 
       000003D0 00 00 00 00 00 00 00 00 00 00 
       000003DA 00 00 00 00 00 00 00 00 00 00 
       000003E4 00 00 00 00 00 00 00 00 00 00 
       000003EE 00 00 00 00 00 00 00 00 00 00 
       000003F8 00 00 00 00 00 00 00 00 00 00 
       00000402 00 00 00 00 00 00 00 00 00 00 
       0000040C 00 00 00 00 00 00 00 00 00 00 
       00000416 00 00 00 00 00 00 00 00 00 00 
       00000420 00 00 00 00 00 00 00 00 00 00 
       0000042A 00 00 00 00 00 00 00 00 00 00 
       00000434 00 00 00 00 00 00 00 00 00 00 
       0000043E 00 00 00 00 00 00 00 00 00 00 
       00000448 00 00 00 00 00 00 00 00 00 00 
       00000452 00 00 00 00 00 00 00 00 00 00 
   505 0000045C                                 	GLOBAL	_COM2
   506                                          [SECTION .data]
   507 0000045C 00 00 00 00                     	ALIGNB	16
   508 00000460                                 _COM2:
   509 00000460 00 00 00 00 00 00 00 00 00 00   	RESB	1100
       0000046A 00 00 00 00 00 00 00 00 00 00 
       00000474 00 00 00 00 00 00 00 00 00 00 
       0000047E 00 00 00 00 00 00 00 00 00 00 
       00000488 00 00 00 00 00 00 00 00 00 00 
       00000492 00 00 00 00 00 00 00 00 00 00 
       0000049C 00 00 00 00 00 00 00 00 00 00 
       000004A6 00 00 00 00 00 00 00 00 00 00 
       000004B0 00 00 00 00 00 00 00 00 00 00 
       000004BA 00 00 00 00 00 00 00 00 00 00 
       000004C4 00 00 00 00 00 00 00 00 00 00 
       000004CE 00 00 00 00 00 00 00 00 00 00 
       000004D8 00 00 00 00 00 00 00 00 00 00 
       000004E2 00 00 00 00 00 00 00 00 00 00 
       000004EC 00 00 00 00 00 00 00 00 00 00 
       000004F6 00 00 00 00 00 00 00 00 00 00 
       00000500 00 00 00 00 00 00 00 00 00 00 
       0000050A 00 00 00 00 00 00 00 00 00 00 
       00000514 00 00 00 00 00 00 00 00 00 00 
       0000051E 00 00 00 00 00 00 00 00 00 00 
       00000528 00 00 00 00 00 00 00 00 00 00 
       00000532 00 00 00 00 00 00 00 00 00 00 
       0000053C 00 00 00 00 00 00 00 00 00 00 
       00000546 00 00 00 00 00 00 00 00 00 00 
       00000550 00 00 00 00 00 00 00 00 00 00 
       0000055A 00 00 00 00 00 00 00 00 00 00 
       00000564 00 00 00 00 00 00 00 00 00 00 
       0000056E 00 00 00 00 00 00 00 00 00 00 
       00000578 00 00 00 00 00 00 00 00 00 00 
       00000582 00 00 00 00 00 00 00 00 00 00 
       0000058C 00 00 00 00 00 00 00 00 00 00 
       00000596 00 00 00 00 00 00 00 00 00 00 
       000005A0 00 00 00 00 00 00 00 00 00 00 
       000005AA 00 00 00 00 00 00 00 00 00 00 
       000005B4 00 00 00 00 00 00 00 00 00 00 
       000005BE 00 00 00 00 00 00 00 00 00 00 
       000005C8 00 00 00 00 00 00 00 00 00 00 
       000005D2 00 00 00 00 00 00 00 00 00 00 
       000005DC 00 00 00 00 00 00 00 00 00 00 
       000005E6 00 00 00 00 00 00 00 00 00 00 
       000005F0 00 00 00 00 00 00 00 00 00 00 
       000005FA 00 00 00 00 00 00 00 00 00 00 
       00000604 00 00 00 00 00 00 00 00 00 00 
       0000060E 00 00 00 00 00 00 00 00 00 00 
       00000618 00 00 00 00 00 00 00 00 00 00 
       00000622 00 00 00 00 00 00 00 00 00 00 
       0000062C 00 00 00 00 00 00 00 00 00 00 
       00000636 00 00 00 00 00 00 00 00 00 00 
       00000640 00 00 00 00 00 00 00 00 00 00 
       0000064A 00 00 00 00 00 00 00 00 00 00 
       00000654 00 00 00 00 00 00 00 00 00 00 
       0000065E 00 00 00 00 00 00 00 00 00 00 
       00000668 00 00 00 00 00 00 00 00 00 00 
       00000672 00 00 00 00 00 00 00 00 00 00 
       0000067C 00 00 00 00 00 00 00 00 00 00 
       00000686 00 00 00 00 00 00 00 00 00 00 
       00000690 00 00 00 00 00 00 00 00 00 00 
       0000069A 00 00 00 00 00 00 00 00 00 00 
       000006A4 00 00 00 00 00 00 00 00 00 00 
       000006AE 00 00 00 00 00 00 00 00 00 00 
       000006B8 00 00 00 00 00 00 00 00 00 00 
       000006C2 00 00 00 00 00 00 00 00 00 00 
       000006CC 00 00 00 00 00 00 00 00 00 00 
       000006D6 00 00 00 00 00 00 00 00 00 00 
       000006E0 00 00 00 00 00 00 00 00 00 00 
       000006EA 00 00 00 00 00 00 00 00 00 00 
       000006F4 00 00 00 00 00 00 00 00 00 00 
       000006FE 00 00 00 00 00 00 00 00 00 00 
       00000708 00 00 00 00 00 00 00 00 00 00 
       00000712 00 00 00 00 00 00 00 00 00 00 
       0000071C 00 00 00 00 00 00 00 00 00 00 
       00000726 00 00 00 00 00 00 00 00 00 00 
       00000730 00 00 00 00 00 00 00 00 00 00 
       0000073A 00 00 00 00 00 00 00 00 00 00 
       00000744 00 00 00 00 00 00 00 00 00 00 
       0000074E 00 00 00 00 00 00 00 00 00 00 
       00000758 00 00 00 00 00 00 00 00 00 00 
       00000762 00 00 00 00 00 00 00 00 00 00 
       0000076C 00 00 00 00 00 00 00 00 00 00 
       00000776 00 00 00 00 00 00 00 00 00 00 
       00000780 00 00 00 00 00 00 00 00 00 00 
       0000078A 00 00 00 00 00 00 00 00 00 00 
       00000794 00 00 00 00 00 00 00 00 00 00 
       0000079E 00 00 00 00 00 00 00 00 00 00 
       000007A8 00 00 00 00 00 00 00 00 00 00 
       000007B2 00 00 00 00 00 00 00 00 00 00 
       000007BC 00 00 00 00 00 00 00 00 00 00 
       000007C6 00 00 00 00 00 00 00 00 00 00 
       000007D0 00 00 00 00 00 00 00 00 00 00 
       000007DA 00 00 00 00 00 00 00 00 00 00 
       000007E4 00 00 00 00 00 00 00 00 00 00 
       000007EE 00 00 00 00 00 00 00 00 00 00 
       000007F8 00 00 00 00 00 00 00 00 00 00 
       00000802 00 00 00 00 00 00 00 00 00 00 
       0000080C 00 00 00 00 00 00 00 00 00 00 
       00000816 00 00 00 00 00 00 00 00 00 00 
       00000820 00 00 00 00 00 00 00 00 00 00 
       0000082A 00 00 00 00 00 00 00 00 00 00 
       00000834 00 00 00 00 00 00 00 00 00 00 
       0000083E 00 00 00 00 00 00 00 00 00 00 
       00000848 00 00 00 00 00 00 00 00 00 00 
       00000852 00 00 00 00 00 00 00 00 00 00 
       0000085C 00 00 00 00 00 00 00 00 00 00 
       00000866 00 00 00 00 00 00 00 00 00 00 
       00000870 00 00 00 00 00 00 00 00 00 00 
       0000087A 00 00 00 00 00 00 00 00 00 00 
       00000884 00 00 00 00 00 00 00 00 00 00 
       0000088E 00 00 00 00 00 00 00 00 00 00 
       00000898 00 00 00 00 00 00 00 00 00 00 
       000008A2 00 00 00 00 00 00 00 00 00 00 
